target datalayout = "e-m:e-p270:32:32-p271:32:32-p272:64:64-i64:64-i128:128-f80:128-n8:16:32:64-S128"
target triple = "x86_64-pc-linux-gnu"

%struct.Path = type { i32, i32, ptr, ptr, ptr, i8, i8, i32, double, i32, double, double, ptr }

@parallel_leader_participation = external global i8, align 1

; Function Attrs: nounwind uwtable
define dso_local double @clamp_row_est(double noundef %0) #0 {
  %2 = alloca double, align 8
  store double %0, ptr %2, align 8
  %3 = load double, ptr %2, align 8
  %4 = fcmp ogt double %3, 1.000000e+100
  br i1 %4, label %8, label %5

5:                                                ; preds = %1
  %6 = load double, ptr %2, align 8
  %7 = call i1 @llvm.is.fpclass.f64(double %6, i32 3)
  br i1 %7, label %8, label %9

8:                                                ; preds = %5, %1
  store double 1.000000e+100, ptr %2, align 8
  br label %17

9:                                                ; preds = %5
  %10 = load double, ptr %2, align 8
  %11 = fcmp ole double %10, 1.000000e+00
  br i1 %11, label %12, label %13

12:                                               ; preds = %9
  store double 1.000000e+00, ptr %2, align 8
  br label %16

13:                                               ; preds = %9
  %14 = load double, ptr %2, align 8
  %15 = call double @llvm.rint.f64(double %14)
  store double %15, ptr %2, align 8
  br label %16

16:                                               ; preds = %13, %12
  br label %17

17:                                               ; preds = %16, %8
  %18 = load double, ptr %2, align 8
  ret double %18
}

; Function Attrs: nounwind uwtable
define internal double @get_parallel_divisor(ptr noundef %0) #0 {
  %2 = alloca ptr, align 8
  %3 = alloca double, align 8
  %4 = alloca double, align 8
  store ptr %0, ptr %2, align 8
  call void @llvm.lifetime.start.p0(i64 8, ptr %3) #9
  %5 = load ptr, ptr %2, align 8
  %6 = getelementptr inbounds nuw %struct.Path, ptr %5, i32 0, i32 7
  %7 = load i32, ptr %6, align 4
  %8 = sitofp i32 %7 to double
  store double %8, ptr %3, align 8
  %9 = load i8, ptr @parallel_leader_participation, align 1, !range !4, !noundef !5
  %10 = trunc i8 %9 to i1
  br i1 %10, label %11, label %24

11:                                               ; preds = %1
  call void @llvm.lifetime.start.p0(i64 8, ptr %4) #9
  %12 = load ptr, ptr %2, align 8
  %13 = getelementptr inbounds nuw %struct.Path, ptr %12, i32 0, i32 7
  %14 = load i32, ptr %13, align 4
  %15 = sitofp i32 %14 to double
  %16 = call double @llvm.fmuladd.f64(double -3.000000e-01, double %15, double 1.000000e+00)
  store double %16, ptr %4, align 8
  %17 = load double, ptr %4, align 8
  %18 = fcmp ogt double %17, 0.000000e+00
  br i1 %18, label %19, label %23

19:                                               ; preds = %11
  %20 = load double, ptr %4, align 8
  %21 = load double, ptr %3, align 8
  %22 = fadd double %21, %20
  store double %22, ptr %3, align 8
  br label %23

23:                                               ; preds = %19, %11
  call void @llvm.lifetime.end.p0(i64 8, ptr %4) #9
  br label %24

24:                                               ; preds = %23, %1
  %25 = load double, ptr %3, align 8
  call void @llvm.lifetime.end.p0(i64 8, ptr %3) #9
  ret double %25
}

; Function Attrs: nounwind uwtable
define dso_local double @compute_gather_rows(ptr noundef %0) #0 {
  %2 = alloca ptr, align 8
  store ptr %0, ptr %2, align 8
  %3 = load ptr, ptr %2, align 8
  %4 = getelementptr inbounds nuw %struct.Path, ptr %3, i32 0, i32 8
  %5 = load double, ptr %4, align 8
  %6 = load ptr, ptr %2, align 8
  %7 = call double @get_parallel_divisor(ptr noundef %6)
  %8 = fmul double %5, %7
  %9 = call double @clamp_row_est(double noundef %8)
  ret double %9
}