; Function Attrs: mustprogress nofree norecurse nosync nounwind willreturn memory(read, inaccessiblemem: none) uwtable
define dso_local double @compute_gather_rows(ptr noundef readonly captures(none) %0) local_unnamed_addr #8 {
  %2 = getelementptr inbounds nuw i8, ptr %0, i64 40
  %3 = load double, ptr %2, align 8
  %4 = getelementptr i8, ptr %0, i64 36
  %.val = load i32, ptr %4, align 4
  %5 = sitofp i32 %.val to double
  %6 = load i8, ptr @parallel_leader_participation, align 1, !range !4, !noundef !5
  %7 = trunc nuw i8 %6 to i1
  br i1 %7, label %8, label %get_parallel_divisor.exit

8:                                                ; preds = %1
  %9 = tail call double @llvm.fmuladd.f64(double %5, double -3.000000e-01, double 1.000000e+00)
  %10 = fcmp ogt double %9, 0.000000e+00
  %11 = select i1 %10, double %9, double -0.000000e+00
  %.1.i = fadd double %11, %5
  br label %get_parallel_divisor.exit

get_parallel_divisor.exit:                        ; preds = %1, %8
  %.0.i = phi double [ %.1.i, %8 ], [ %5, %1 ]
  %12 = fmul double %3, %.0.i
  %13 = fcmp ogt double %12, 1.000000e+100
  %14 = fcmp uno double %12, 0.000000e+00
  %or.cond.i = or i1 %13, %14
  br i1 %or.cond.i, label %clamp_row_est.exit, label %15

15:                                               ; preds = %get_parallel_divisor.exit
  %16 = fcmp ugt double %12, 1.000000e+00
  br i1 %16, label %17, label %clamp_row_est.exit

17:                                               ; preds = %15
  %18 = tail call double @llvm.rint.f64(double %12)
  br label %clamp_row_est.exit

clamp_row_est.exit:                               ; preds = %get_parallel_divisor.exit, %15, %17
  %.0.i2 = phi double [ %18, %17 ], [ 1.000000e+100, %get_parallel_divisor.exit ], [ 1.000000e+00, %15 ]
  ret double %.0.i2
}